; Function Attrs: mustprogress uwtable
define void @_ZNK6icu_7722FormattedStringBuilder19toTempUnicodeStringEv(ptr dead_on_unwind noalias nonnull writable sret(%"class.icu_77::UnicodeString") align 8 %0, ptr noundef nonnull align 8 dereferenceable(136) %1) local_unnamed_addr #5 align 2 personality ptr @__gxx_personality_v0 {
  %3 = alloca %"class.icu_77::ConstChar16Ptr", align 8
  %4 = load i8, ptr %1, align 8, !tbaa !3, !range !11, !noundef !12
  %5 = trunc nuw i8 %4 to i1
  %6 = getelementptr inbounds nuw i8, ptr %1, i64 8
  %7 = load ptr, ptr %6, align 8
  %8 = select i1 %5, ptr %7, ptr %6
  %9 = getelementptr inbounds nuw i8, ptr %1, i64 128
  %10 = load i32, ptr %9, align 8, !tbaa !9
  %11 = sext i32 %10 to i64
  %12 = getelementptr inbounds i16, ptr %8, i64 %11
  store ptr %12, ptr %3, align 8, !tbaa !23
  %13 = getelementptr inbounds nuw i8, ptr %1, i64 132
  %14 = load i32, ptr %13, align 4, !tbaa !10
  invoke void @_ZN6icu_7713UnicodeStringC1EaNS_14ConstChar16PtrEi(ptr noundef nonnull align 8 dereferenceable(64) %0, i8 noundef signext 0, ptr noundef nonnull %3, i32 noundef %14)
          to label %15 unwind label %17

15:                                               ; preds = %2
  %16 = load ptr, ptr %3, align 8, !tbaa !23
  call void asm sideeffect "", "rm,~{memory},~{dirflag},~{fpsr},~{flags}"(ptr %16) #15, !srcloc !27
  ret void

17:                                               ; preds = %2
  %18 = landingpad { ptr, i32 }
          cleanup
  %19 = load ptr, ptr %3, align 8, !tbaa !23
  call void asm sideeffect "", "rm,~{memory},~{dirflag},~{fpsr},~{flags}"(ptr %19) #15, !srcloc !27
  resume { ptr, i32 } %18
}